target datalayout = "e-m:e-p270:32:32-p271:32:32-p272:64:64-i64:64-i128:128-f80:128-n8:16:32:64-S128"
target triple = "x86_64-pc-linux-gnu"

@hf_rtitcp_header_control_byte = internal global i32 0, align 4
@hf_rtitcp_header_message_length = internal global i32 0, align 4
@hf_rtitcp_header_magic_number = internal global i32 0, align 4
@hf_rtitcp_crc_magic_cookie = internal global i32 0, align 4
@hf_rtitcp_control_crc_value = internal global i32 0, align 4
@ett_rtitcp_message = internal global i32 0, align 4
@.str.110 = private unnamed_addr constant [21 x i8] c"RTI TCP Data Message\00", align 1
@.str.111 = private unnamed_addr constant [24 x i8] c"RTI TCP Control Message\00", align 1
@.str.112 = private unnamed_addr constant [27 x i8] c"RTI TCP Message Length: %d\00", align 1

; Function Attrs: null_pointer_is_valid sspstrong uwtable
define internal ptr @print_header(ptr noundef %0, ptr noundef %1, ptr noundef %2, i32 noundef %3, i16 noundef zeroext %4, i1 noundef zeroext %5, i1 noundef zeroext %6) #0 {
  %8 = alloca ptr, align 8
  %9 = alloca ptr, align 8
  %10 = alloca ptr, align 8
  %11 = alloca i32, align 4
  %12 = alloca i16, align 2
  %13 = alloca i8, align 1
  %14 = alloca i8, align 1
  %15 = alloca ptr, align 8
  %16 = alloca i32, align 4
  store ptr %0, ptr %8, align 8
  store ptr %1, ptr %9, align 8
  store ptr %2, ptr %10, align 8
  store i32 %3, ptr %11, align 4
  store i16 %4, ptr %12, align 2
  %17 = zext i1 %5 to i8
  store i8 %17, ptr %13, align 1
  %18 = zext i1 %6 to i8
  store i8 %18, ptr %14, align 1
  call void @llvm.lifetime.start.p0(i64 8, ptr %15) #6
  %19 = load i8, ptr %14, align 1, !range !6, !noundef !7
  %20 = trunc i8 %19 to i1
  br i1 %20, label %21, label %29

21:                                               ; preds = %7
  %22 = load ptr, ptr %8, align 8
  %23 = load ptr, ptr %10, align 8
  %24 = load i32, ptr %11, align 4
  %25 = load i16, ptr %12, align 2
  %26 = zext i16 %25 to i32
  %27 = load i32, ptr @ett_rtitcp_message, align 4
  %28 = call ptr (ptr, ptr, i32, i32, i32, ptr, ptr, ...) @proto_tree_add_subtree_format(ptr noundef %22, ptr noundef %23, i32 noundef %24, i32 noundef %26, i32 noundef %27, ptr noundef null, ptr noundef @.str.110)
  store ptr %28, ptr %9, align 8
  br label %37

29:                                               ; preds = %7
  %30 = load ptr, ptr %8, align 8
  %31 = load ptr, ptr %10, align 8
  %32 = load i32, ptr %11, align 4
  %33 = load i16, ptr %12, align 2
  %34 = zext i16 %33 to i32
  %35 = load i32, ptr @ett_rtitcp_message, align 4
  %36 = call ptr (ptr, ptr, i32, i32, i32, ptr, ptr, ...) @proto_tree_add_subtree_format(ptr noundef %30, ptr noundef %31, i32 noundef %32, i32 noundef %34, i32 noundef %35, ptr noundef null, ptr noundef @.str.111)
  store ptr %36, ptr %9, align 8
  br label %37

37:                                               ; preds = %29, %21
  %38 = load i8, ptr %14, align 1, !range !6, !noundef !7
  %39 = trunc i8 %38 to i1
  br i1 %39, label %40, label %59

40:                                               ; preds = %37
  call void @llvm.lifetime.start.p0(i64 4, ptr %16) #6
  %41 = load ptr, ptr %9, align 8
  %42 = load i32, ptr @hf_rtitcp_header_control_byte, align 4
  %43 = load ptr, ptr %10, align 8
  %44 = load i32, ptr %11, align 4
  %45 = call ptr @proto_tree_add_item(ptr noundef %41, i32 noundef %42, ptr noundef %43, i32 noundef %44, i32 noundef 1, i32 noundef 0)
  %46 = load ptr, ptr %9, align 8
  %47 = load i32, ptr @hf_rtitcp_header_message_length, align 4
  %48 = load ptr, ptr %10, align 8
  %49 = load i32, ptr %11, align 4
  %50 = add i32 %49, 1
  %51 = call ptr @proto_tree_add_item(ptr noundef %46, i32 noundef %47, ptr noundef %48, i32 noundef %50, i32 noundef 3, i32 noundef 0)
  store ptr %51, ptr %15, align 8
  %52 = load ptr, ptr %10, align 8
  %53 = load i32, ptr %11, align 4
  %54 = call i32 @tvb_get_uint32(ptr noundef %52, i32 noundef %53, i32 noundef 0)
  store i32 %54, ptr %16, align 4
  %55 = load i32, ptr %16, align 4
  %56 = urem i32 %55, 1073741824
  store i32 %56, ptr %16, align 4
  %57 = load ptr, ptr %15, align 8
  %58 = load i32, ptr %16, align 4
  call void (ptr, ptr, ...) @proto_item_set_text(ptr noundef %57, ptr noundef @.str.112, i32 noundef %58)
  call void @llvm.lifetime.end.p0(i64 4, ptr %16) #6
  br label %71

59:                                               ; preds = %37
  %60 = load ptr, ptr %9, align 8
  %61 = load i32, ptr @hf_rtitcp_header_control_byte, align 4
  %62 = load ptr, ptr %10, align 8
  %63 = load i32, ptr %11, align 4
  %64 = call ptr @proto_tree_add_item(ptr noundef %60, i32 noundef %61, ptr noundef %62, i32 noundef %63, i32 noundef 2, i32 noundef 0)
  %65 = load ptr, ptr %9, align 8
  %66 = load i32, ptr @hf_rtitcp_header_message_length, align 4
  %67 = load ptr, ptr %10, align 8
  %68 = load i32, ptr %11, align 4
  %69 = add i32 %68, 2
  %70 = call ptr @proto_tree_add_item(ptr noundef %65, i32 noundef %66, ptr noundef %67, i32 noundef %69, i32 noundef 2, i32 noundef 0)
  br label %71

71:                                               ; preds = %59, %40
  %72 = load ptr, ptr %9, align 8
  %73 = load i32, ptr @hf_rtitcp_header_magic_number, align 4
  %74 = load ptr, ptr %10, align 8
  %75 = load i32, ptr %11, align 4
  %76 = add i32 %75, 4
  %77 = call ptr @proto_tree_add_item(ptr noundef %72, i32 noundef %73, ptr noundef %74, i32 noundef %76, i32 noundef 4, i32 noundef 0)
  %78 = load i8, ptr %13, align 1, !range !6, !noundef !7
  %79 = trunc i8 %78 to i1
  br i1 %79, label %80, label %93

80:                                               ; preds = %71
  %81 = load ptr, ptr %9, align 8
  %82 = load i32, ptr @hf_rtitcp_crc_magic_cookie, align 4
  %83 = load ptr, ptr %10, align 8
  %84 = load i32, ptr %11, align 4
  %85 = add i32 %84, 8
  %86 = call ptr @proto_tree_add_item(ptr noundef %81, i32 noundef %82, ptr noundef %83, i32 noundef %85, i32 noundef 4, i32 noundef 0)
  %87 = load ptr, ptr %9, align 8
  %88 = load i32, ptr @hf_rtitcp_control_crc_value, align 4
  %89 = load ptr, ptr %10, align 8
  %90 = load i32, ptr %11, align 4
  %91 = add i32 %90, 12
  %92 = call ptr @proto_tree_add_item(ptr noundef %87, i32 noundef %88, ptr noundef %89, i32 noundef %91, i32 noundef 4, i32 noundef 0)
  br label %93

93:                                               ; preds = %80, %71
  %94 = load ptr, ptr %9, align 8
  call void @llvm.lifetime.end.p0(i64 8, ptr %15) #6
  ret ptr %94
}