; Function Attrs: null_pointer_is_valid sspstrong uwtable
define internal fastcc noundef ptr @print_header(ptr noundef %0, ptr noundef %1, i32 noundef %2, i16 noundef zeroext %3, i1 noundef zeroext %4, i1 noundef zeroext %5) unnamed_addr #0 {
  %7 = zext i16 %3 to i32
  %8 = load i32, ptr @ett_rtitcp_message, align 4
  br i1 %5, label %9, label %18

9:                                                ; preds = %6
  %10 = tail call ptr (ptr, ptr, i32, i32, i32, ptr, ptr, ...) @proto_tree_add_subtree_format(ptr noundef %0, ptr noundef %1, i32 noundef %2, i32 noundef %7, i32 noundef %8, ptr noundef null, ptr noundef nonnull @.str.110)
  %11 = load i32, ptr @hf_rtitcp_header_control_byte, align 4
  %12 = tail call ptr @proto_tree_add_item(ptr noundef %10, i32 noundef %11, ptr noundef %1, i32 noundef %2, i32 noundef 1, i32 noundef 0)
  %13 = load i32, ptr @hf_rtitcp_header_message_length, align 4
  %14 = add i32 %2, 1
  %15 = tail call ptr @proto_tree_add_item(ptr noundef %10, i32 noundef %13, ptr noundef %1, i32 noundef %14, i32 noundef 3, i32 noundef 0)
  %16 = tail call i32 @tvb_get_uint32(ptr noundef %1, i32 noundef %2, i32 noundef 0)
  %17 = and i32 %16, 1073741823
  tail call void (ptr, ptr, ...) @proto_item_set_text(ptr noundef %15, ptr noundef nonnull @.str.112, i32 noundef %17)
  br label %25

18:                                               ; preds = %6
  %19 = tail call ptr (ptr, ptr, i32, i32, i32, ptr, ptr, ...) @proto_tree_add_subtree_format(ptr noundef %0, ptr noundef %1, i32 noundef %2, i32 noundef %7, i32 noundef %8, ptr noundef null, ptr noundef nonnull @.str.111)
  %20 = load i32, ptr @hf_rtitcp_header_control_byte, align 4
  %21 = tail call ptr @proto_tree_add_item(ptr noundef %19, i32 noundef %20, ptr noundef %1, i32 noundef %2, i32 noundef 2, i32 noundef 0)
  %22 = load i32, ptr @hf_rtitcp_header_message_length, align 4
  %23 = add i32 %2, 2
  %24 = tail call ptr @proto_tree_add_item(ptr noundef %19, i32 noundef %22, ptr noundef %1, i32 noundef %23, i32 noundef 2, i32 noundef 0)
  br label %25

25:                                               ; preds = %18, %9
  %.03 = phi ptr [ %19, %18 ], [ %10, %9 ]
  %26 = load i32, ptr @hf_rtitcp_header_magic_number, align 4
  %27 = add i32 %2, 4
  %28 = tail call ptr @proto_tree_add_item(ptr noundef %.03, i32 noundef %26, ptr noundef %1, i32 noundef %27, i32 noundef 4, i32 noundef 0)
  br i1 %4, label %29, label %36

29:                                               ; preds = %25
  %30 = load i32, ptr @hf_rtitcp_crc_magic_cookie, align 4
  %31 = add i32 %2, 8
  %32 = tail call ptr @proto_tree_add_item(ptr noundef %.03, i32 noundef %30, ptr noundef %1, i32 noundef %31, i32 noundef 4, i32 noundef 0)
  %33 = load i32, ptr @hf_rtitcp_control_crc_value, align 4
  %34 = add i32 %2, 12
  %35 = tail call ptr @proto_tree_add_item(ptr noundef %.03, i32 noundef %33, ptr noundef %1, i32 noundef %34, i32 noundef 4, i32 noundef 0)
  br label %36

36:                                               ; preds = %29, %25
  ret ptr %.03
}